target datalayout = "e-m:e-p270:32:32-p271:32:32-p272:64:64-i64:64-i128:128-f80:128-n8:16:32:64-S128"
target triple = "x86_64-pc-linux-gnu"

%union._GMutex = type { ptr }
%struct.PageCounters = type { i64, i32, i32, i64, i64 }

@track_io = internal global i8 0, align 1
@page_mask = internal global i64 0, align 8
@pages = internal global ptr null, align 8
@lock = internal global %union._GMutex zeroinitializer, align 8

; Function Attrs: nounwind sspstrong uwtable
define internal void @vcpu_haddr(i32 noundef %0, i32 noundef %1, i64 noundef %2, ptr noundef %3) #0 {
  %5 = alloca i32, align 4
  %6 = alloca i32, align 4
  %7 = alloca i64, align 8
  %8 = alloca ptr, align 8
  %9 = alloca ptr, align 8
  %10 = alloca i64, align 8
  %11 = alloca ptr, align 8
  %12 = alloca i32, align 4
  %13 = alloca i64, align 8
  %14 = alloca i64, align 8
  %15 = alloca ptr, align 8
  %16 = alloca ptr, align 8
  store i32 %0, ptr %5, align 4
  store i32 %1, ptr %6, align 4
  store i64 %2, ptr %7, align 8
  store ptr %3, ptr %8, align 8
  call void @llvm.lifetime.start.p0(i64 8, ptr %9) #9
  %17 = load i32, ptr %6, align 4
  %18 = load i64, ptr %7, align 8
  %19 = call ptr @qemu_plugin_get_hwaddr(i32 noundef %17, i64 noundef %18)
  store ptr %19, ptr %9, align 8
  call void @llvm.lifetime.start.p0(i64 8, ptr %10) #9
  store i64 0, ptr %10, align 8, !annotation !3
  call void @llvm.lifetime.start.p0(i64 8, ptr %11) #9
  store ptr null, ptr %11, align 8, !annotation !3
  %20 = load i8, ptr @track_io, align 1, !range !8, !noundef !9
  %21 = trunc i8 %20 to i1
  br i1 %21, label %22, label %32

22:                                               ; preds = %4
  %23 = load ptr, ptr %9, align 8
  %24 = icmp ne ptr %23, null
  br i1 %24, label %25, label %30

25:                                               ; preds = %22
  %26 = load ptr, ptr %9, align 8
  %27 = call zeroext i1 @qemu_plugin_hwaddr_is_io(ptr noundef %26)
  br i1 %27, label %28, label %30

28:                                               ; preds = %25
  %29 = load i64, ptr %7, align 8
  store i64 %29, ptr %10, align 8
  br label %31

30:                                               ; preds = %25, %22
  store i32 1, ptr %12, align 4
  br label %117

31:                                               ; preds = %28
  br label %44

32:                                               ; preds = %4
  %33 = load ptr, ptr %9, align 8
  %34 = icmp ne ptr %33, null
  br i1 %34, label %35, label %41

35:                                               ; preds = %32
  %36 = load ptr, ptr %9, align 8
  %37 = call zeroext i1 @qemu_plugin_hwaddr_is_io(ptr noundef %36)
  br i1 %37, label %41, label %38

38:                                               ; preds = %35
  %39 = load ptr, ptr %9, align 8
  %40 = call i64 @qemu_plugin_hwaddr_phys_addr(ptr noundef %39)
  store i64 %40, ptr %10, align 8
  br label %43

41:                                               ; preds = %35, %32
  %42 = load i64, ptr %7, align 8
  store i64 %42, ptr %10, align 8
  br label %43

43:                                               ; preds = %41, %38
  br label %44

44:                                               ; preds = %43, %31
  %45 = load i64, ptr @page_mask, align 8
  %46 = xor i64 %45, -1
  %47 = load i64, ptr %10, align 8
  %48 = and i64 %47, %46
  store i64 %48, ptr %10, align 8
  call void @g_mutex_lock(ptr noundef @lock)
  %49 = load ptr, ptr @pages, align 8
  %50 = call ptr @g_hash_table_lookup(ptr noundef %49, ptr noundef %10)
  store ptr %50, ptr %11, align 8
  %51 = load ptr, ptr %11, align 8
  %52 = icmp ne ptr %51, null
  br i1 %52, label %91, label %53

53:                                               ; preds = %44
  call void @llvm.lifetime.start.p0(i64 8, ptr %13) #9
  store i64 1, ptr %13, align 8
  call void @llvm.lifetime.start.p0(i64 8, ptr %14) #9
  store i64 32, ptr %14, align 8
  call void @llvm.lifetime.start.p0(i64 8, ptr %15) #9
  store ptr null, ptr %15, align 8, !annotation !3
  %54 = load i64, ptr %14, align 8
  %55 = icmp eq i64 %54, 1
  br i1 %55, label %56, label %59

56:                                               ; preds = %53
  %57 = load i64, ptr %13, align 8
  %58 = call noalias ptr @g_malloc0(i64 noundef %57) #10
  store ptr %58, ptr %15, align 8
  br label %80

59:                                               ; preds = %53
  %60 = load i64, ptr %13, align 8
  %61 = call i1 @llvm.is.constant.i64(i64 %60)
  br i1 %61, label %62, label %75

62:                                               ; preds = %59
  %63 = load i64, ptr %14, align 8
  %64 = icmp eq i64 %63, 0
  br i1 %64, label %70, label %65

65:                                               ; preds = %62
  %66 = load i64, ptr %13, align 8
  %67 = load i64, ptr %14, align 8
  %68 = udiv i64 -1, %67
  %69 = icmp ule i64 %66, %68
  br i1 %69, label %70, label %75

70:                                               ; preds = %65, %62
  %71 = load i64, ptr %13, align 8
  %72 = load i64, ptr %14, align 8
  %73 = mul i64 %71, %72
  %74 = call noalias ptr @g_malloc0(i64 noundef %73) #10
  store ptr %74, ptr %15, align 8
  br label %79

75:                                               ; preds = %65, %59
  %76 = load i64, ptr %13, align 8
  %77 = load i64, ptr %14, align 8
  %78 = call noalias ptr @g_malloc0_n(i64 noundef %76, i64 noundef %77) #11
  store ptr %78, ptr %15, align 8
  br label %79

79:                                               ; preds = %75, %70
  br label %80

80:                                               ; preds = %79, %56
  %81 = load ptr, ptr %15, align 8
  store ptr %81, ptr %16, align 8
  call void @llvm.lifetime.end.p0(i64 8, ptr %15) #9
  call void @llvm.lifetime.end.p0(i64 8, ptr %14) #9
  call void @llvm.lifetime.end.p0(i64 8, ptr %13) #9
  %82 = load ptr, ptr %16, align 8
  store ptr %82, ptr %11, align 8
  %83 = load i64, ptr %10, align 8
  %84 = load ptr, ptr %11, align 8
  %85 = getelementptr inbounds nuw %struct.PageCounters, ptr %84, i32 0, i32 0
  store i64 %83, ptr %85, align 8
  %86 = load ptr, ptr @pages, align 8
  %87 = load ptr, ptr %11, align 8
  %88 = getelementptr inbounds nuw %struct.PageCounters, ptr %87, i32 0, i32 0
  %89 = load ptr, ptr %11, align 8
  %90 = call i32 @g_hash_table_insert(ptr noundef %86, ptr noundef %88, ptr noundef %89)
  br label %91

91:                                               ; preds = %80, %44
  %92 = load i32, ptr %6, align 4
  %93 = call zeroext i1 @qemu_plugin_mem_is_store(i32 noundef %92)
  br i1 %93, label %94, label %105

94:                                               ; preds = %91
  %95 = load ptr, ptr %11, align 8
  %96 = getelementptr inbounds nuw %struct.PageCounters, ptr %95, i32 0, i32 4
  %97 = load i64, ptr %96, align 8
  %98 = add i64 %97, 1
  store i64 %98, ptr %96, align 8
  %99 = load i32, ptr %5, align 4
  %100 = shl i32 1, %99
  %101 = load ptr, ptr %11, align 8
  %102 = getelementptr inbounds nuw %struct.PageCounters, ptr %101, i32 0, i32 2
  %103 = load i32, ptr %102, align 4
  %104 = or i32 %103, %100
  store i32 %104, ptr %102, align 4
  br label %116

105:                                              ; preds = %91
  %106 = load ptr, ptr %11, align 8
  %107 = getelementptr inbounds nuw %struct.PageCounters, ptr %106, i32 0, i32 3
  %108 = load i64, ptr %107, align 8
  %109 = add i64 %108, 1
  store i64 %109, ptr %107, align 8
  %110 = load i32, ptr %5, align 4
  %111 = shl i32 1, %110
  %112 = load ptr, ptr %11, align 8
  %113 = getelementptr inbounds nuw %struct.PageCounters, ptr %112, i32 0, i32 1
  %114 = load i32, ptr %113, align 8
  %115 = or i32 %114, %111
  store i32 %115, ptr %113, align 8
  br label %116

116:                                              ; preds = %105, %94
  call void @g_mutex_unlock(ptr noundef @lock)
  store i32 0, ptr %12, align 4
  br label %117

117:                                              ; preds = %116, %30
  call void @llvm.lifetime.end.p0(i64 8, ptr %11) #9
  call void @llvm.lifetime.end.p0(i64 8, ptr %10) #9
  call void @llvm.lifetime.end.p0(i64 8, ptr %9) #9
  %118 = load i32, ptr %12, align 4
  switch i32 %118, label %120 [
    i32 0, label %119
    i32 1, label %119
  ]

119:                                              ; preds = %117, %117
  ret void

120:                                              ; preds = %117
  unreachable
}