; Function Attrs: nounwind sspstrong uwtable
define internal void @vcpu_haddr(i32 noundef %0, i32 noundef %1, i64 noundef %2, ptr readnone captures(none) %3) #0 {
  %5 = alloca i64, align 8
  %6 = tail call ptr @qemu_plugin_get_hwaddr(i32 noundef %1, i64 noundef %2) #6
  call void @llvm.lifetime.start.p0(i64 8, ptr nonnull %5) #6
  %7 = load i8, ptr @track_io, align 1, !range !7, !noundef !8
  %8 = trunc nuw i8 %7 to i1
  %.not34 = icmp eq ptr %6, null
  br i1 %8, label %9, label %12

9:                                                ; preds = %4
  br i1 %.not34, label %47, label %10

10:                                               ; preds = %9
  %11 = tail call zeroext i1 @qemu_plugin_hwaddr_is_io(ptr noundef nonnull %6) #6
  br i1 %11, label %17, label %47

12:                                               ; preds = %4
  br i1 %.not34, label %17, label %13

13:                                               ; preds = %12
  %14 = tail call zeroext i1 @qemu_plugin_hwaddr_is_io(ptr noundef nonnull %6) #6
  br i1 %14, label %17, label %15

15:                                               ; preds = %13
  %16 = tail call i64 @qemu_plugin_hwaddr_phys_addr(ptr noundef nonnull %6) #6
  br label %17

17:                                               ; preds = %12, %13, %10, %15
  %18 = phi i64 [ %16, %15 ], [ %2, %10 ], [ %2, %13 ], [ %2, %12 ]
  %19 = load i64, ptr @page_mask, align 8
  %20 = xor i64 %19, -1
  %21 = and i64 %18, %20
  store i64 %21, ptr %5, align 8
  tail call void @g_mutex_lock(ptr noundef nonnull @lock) #6
  %22 = load ptr, ptr @pages, align 8
  %23 = call ptr @g_hash_table_lookup(ptr noundef %22, ptr noundef nonnull %5) #6
  %.not35 = icmp eq ptr %23, null
  br i1 %.not35, label %24, label %29

24:                                               ; preds = %17
  %25 = call noalias dereferenceable_or_null(32) ptr @g_malloc0(i64 noundef 32) #8
  %26 = load i64, ptr %5, align 8
  store i64 %26, ptr %25, align 8
  %27 = load ptr, ptr @pages, align 8
  %28 = call i32 @g_hash_table_insert(ptr noundef %27, ptr noundef nonnull %25, ptr noundef nonnull %25) #6
  br label %29

29:                                               ; preds = %24, %17
  %.0 = phi ptr [ %23, %17 ], [ %25, %24 ]
  %30 = call zeroext i1 @qemu_plugin_mem_is_store(i32 noundef %1) #6
  %31 = shl nuw i32 1, %0
  br i1 %30, label %32, label %39

32:                                               ; preds = %29
  %33 = getelementptr inbounds nuw i8, ptr %.0, i64 24
  %34 = load i64, ptr %33, align 8
  %35 = add i64 %34, 1
  store i64 %35, ptr %33, align 8
  %36 = getelementptr inbounds nuw i8, ptr %.0, i64 12
  %37 = load i32, ptr %36, align 4
  %38 = or i32 %37, %31
  store i32 %38, ptr %36, align 4
  br label %46

39:                                               ; preds = %29
  %40 = getelementptr inbounds nuw i8, ptr %.0, i64 16
  %41 = load i64, ptr %40, align 8
  %42 = add i64 %41, 1
  store i64 %42, ptr %40, align 8
  %43 = getelementptr inbounds nuw i8, ptr %.0, i64 8
  %44 = load i32, ptr %43, align 8
  %45 = or i32 %44, %31
  store i32 %45, ptr %43, align 8
  br label %46

46:                                               ; preds = %39, %32
  call void @g_mutex_unlock(ptr noundef nonnull @lock) #6
  br label %47

47:                                               ; preds = %9, %10, %46
  call void @llvm.lifetime.end.p0(i64 8, ptr nonnull %5) #6
  ret void
}